; Function Attrs: mustprogress uwtable
define dso_local void @_ZN4Luau16TypePackIteratorC2EPKNS_11TypePackVarEPKNS_6TxnLogE(ptr noundef nonnull writeonly align 8 captures(none) dereferenceable(32) initializes((0, 32)) %0, ptr noundef %1, ptr noundef nonnull %2) unnamed_addr #2 align 2 {
  %4 = tail call noundef ptr @_ZNK4Luau6TxnLog6followEPKNS_11TypePackVarE(ptr noundef nonnull align 8 dereferenceable(128) %2, ptr noundef %1)
  store ptr %4, ptr %0, align 8, !tbaa !92
  %5 = getelementptr inbounds nuw i8, ptr %0, i64 8
  %6 = tail call noundef ptr @_ZNK4Luau6TxnLog7pendingEPKNS_11TypePackVarE(ptr noundef nonnull align 8 dereferenceable(128) %2, ptr noundef %4)
  %.not.i.i = icmp eq ptr %6, null
  br i1 %.not.i.i, label %7, label %_ZN4Luau10getMutableINS_8TypePackEEEPT_PKNS_11TypePackVarE.exit.sink.split.i.i

7:                                                ; preds = %3
  %.not.i.i.i.i = icmp eq ptr %4, null
  br i1 %.not.i.i.i.i, label %_ZNK4Luau6TxnLog3getINS_8TypePackEPKNS_11TypePackVarEEEPKT_T0_.exit.thread, label %_ZN4Luau10getMutableINS_8TypePackEEEPT_PKNS_11TypePackVarE.exit.sink.split.i.i

_ZN4Luau10getMutableINS_8TypePackEEEPT_PKNS_11TypePackVarE.exit.sink.split.i.i: ; preds = %7, %3
  %.sink.i.i = phi ptr [ %6, %3 ], [ %4, %7 ]
  %8 = load i32, ptr %.sink.i.i, align 8, !tbaa !49
  %9 = icmp eq i32 %8, 4
  br i1 %9, label %.lr.ph.preheader, label %_ZNK4Luau6TxnLog3getINS_8TypePackEPKNS_11TypePackVarEEEPKT_T0_.exit.thread

_ZNK4Luau6TxnLog3getINS_8TypePackEPKNS_11TypePackVarEEEPKT_T0_.exit.thread: ; preds = %7, %_ZN4Luau10getMutableINS_8TypePackEEEPT_PKNS_11TypePackVarE.exit.sink.split.i.i
  %10 = getelementptr inbounds nuw i8, ptr %0, i64 24
  tail call void @llvm.memset.p0.i64(ptr noundef nonnull align 8 dereferenceable(16) %5, i8 0, i64 16, i1 false)
  store ptr %2, ptr %10, align 8, !tbaa !96
  br label %.critedge

.lr.ph.preheader:                                 ; preds = %_ZN4Luau10getMutableINS_8TypePackEEEPT_PKNS_11TypePackVarE.exit.sink.split.i.i
  %11 = getelementptr inbounds nuw i8, ptr %.sink.i.i, i64 8
  store ptr %11, ptr %5, align 8, !tbaa !97
  %12 = getelementptr inbounds nuw i8, ptr %0, i64 16
  store i64 0, ptr %12, align 8, !tbaa !98
  %13 = getelementptr inbounds nuw i8, ptr %0, i64 24
  store ptr %2, ptr %13, align 8, !tbaa !96
  %14 = load ptr, ptr %11, align 8, !tbaa !68
  %15 = getelementptr inbounds nuw i8, ptr %.sink.i.i, i64 16
  %16 = load ptr, ptr %15, align 8, !tbaa !68
  %17 = icmp eq ptr %14, %16
  br i1 %17, label %.lr.ph17, label %.critedge

.lr.ph17:                                         ; preds = %.lr.ph.preheader, %.lr.ph
  %18 = phi ptr [ %29, %.lr.ph ], [ %11, %.lr.ph.preheader ]
  %19 = getelementptr inbounds nuw i8, ptr %18, i64 32
  %20 = load i8, ptr %19, align 8, !tbaa !72, !range !74, !noundef !75
  %21 = trunc nuw i8 %20 to i1
  br i1 %21, label %22, label %.thread

.thread:                                          ; preds = %.lr.ph17
  store ptr null, ptr %0, align 8, !tbaa !92
  br label %.thread15

22:                                               ; preds = %.lr.ph17
  %23 = getelementptr inbounds nuw i8, ptr %18, i64 24
  %24 = load ptr, ptr %23, align 8, !tbaa !76
  %25 = tail call noundef ptr @_ZNK4Luau6TxnLog6followEPKNS_11TypePackVarE(ptr noundef nonnull align 8 dereferenceable(128) %2, ptr noundef %24)
  store ptr %25, ptr %0, align 8, !tbaa !92
  %.not8 = icmp eq ptr %25, null
  br i1 %.not8, label %.thread15, label %_ZNK4Luau6TxnLog10getMutableINS_8TypePackEPKNS_11TypePackVarEEEPT_T0_.exit

_ZNK4Luau6TxnLog10getMutableINS_8TypePackEPKNS_11TypePackVarEEEPT_T0_.exit: ; preds = %22
  %26 = tail call noundef ptr @_ZNK4Luau6TxnLog7pendingEPKNS_11TypePackVarE(ptr noundef nonnull align 8 dereferenceable(128) %2, ptr noundef nonnull %25)
  %.not.i = icmp eq ptr %26, null
  %spec.select = select i1 %.not.i, ptr %25, ptr %26
  %27 = load i32, ptr %spec.select, align 8, !tbaa !49
  %28 = icmp eq i32 %27, 4
  br i1 %28, label %.lr.ph, label %.thread15

.thread15:                                        ; preds = %_ZNK4Luau6TxnLog10getMutableINS_8TypePackEPKNS_11TypePackVarEEEPT_T0_.exit, %22, %.thread
  store ptr null, ptr %5, align 8, !tbaa !97
  br label %.critedge

.lr.ph:                                           ; preds = %_ZNK4Luau6TxnLog10getMutableINS_8TypePackEPKNS_11TypePackVarEEEPT_T0_.exit
  %29 = getelementptr inbounds nuw i8, ptr %spec.select, i64 8
  store ptr %29, ptr %5, align 8, !tbaa !97
  %30 = load ptr, ptr %29, align 8, !tbaa !68
  %31 = getelementptr inbounds nuw i8, ptr %spec.select, i64 16
  %32 = load ptr, ptr %31, align 8, !tbaa !68
  %33 = icmp eq ptr %30, %32
  br i1 %33, label %.lr.ph17, label %.critedge, !llvm.loop !71

.critedge:                                        ; preds = %.lr.ph, %.lr.ph.preheader, %.thread15, %_ZNK4Luau6TxnLog3getINS_8TypePackEPKNS_11TypePackVarEEEPKT_T0_.exit.thread
  ret void
}